(lp0
S'/Users/rabshakeh/workspace/cryptobox/coffeescript-pretty-print'
p1
aS'/Users/rabshakeh/workspace/cryptobox/couchdb_api'
p2
aS'/Users/rabshakeh/workspace/cryptobox/couchdb_tree'
p3
aS'/Users/rabshakeh/workspace/cryptobox/crypto_api'
p4
aS'/Users/rabshakeh/workspace/cryptobox/crypto_task'
p5
aS'/Users/rabshakeh/workspace/cryptobox/crypto_taskworker'
p6
aS'/Users/rabshakeh/workspace/cryptobox/cryptobox_app'
p7
aS'/Users/rabshakeh/workspace/cryptobox/cryptobox_website'
p8
aS'/Users/rabshakeh/workspace/cryptobox/mailer'
p9
aS'/Users/rabshakeh/workspace/cryptobox/sms'
p10
aS'/Users/rabshakeh/workspace/cryptobox/www_cryptobox_nl'
p11
aS'/Users/rabshakeh/workspace/git_utils'
p12
a.