(lp1
S'/Users/rabshakeh/workspace/cryptobox/backup'
p2
aS'/Users/rabshakeh/workspace/cryptobox/coffeescript-pretty-print'
p3
aS'/Users/rabshakeh/workspace/cryptobox/couchdb_api'
p4
aS'/Users/rabshakeh/workspace/cryptobox/crypto_api'
p5
aS'/Users/rabshakeh/workspace/cryptobox/crypto_lang'
p6
aS'/Users/rabshakeh/workspace/cryptobox/crypto_task'
p7
aS'/Users/rabshakeh/workspace/cryptobox/crypto_taskworker'
p8
aS'/Users/rabshakeh/workspace/cryptobox/crypto_tree'
p9
aS'/Users/rabshakeh/workspace/cryptobox/cryptobox_app'
p10
aS'/Users/rabshakeh/workspace/cryptobox/cryptobox_webapp'
p11
aS'/Users/rabshakeh/workspace/cryptobox/cryptobox_website'
p12
aS'/Users/rabshakeh/workspace/cryptobox/mailer'
p13
aS'/Users/rabshakeh/workspace/cryptobox/sms'
p14
aS'/Users/rabshakeh/workspace/cryptobox/www_cryptobox_nl'
p15
aS'/Users/rabshakeh/workspace/de_jonge_vakkleding'
p16
aS'/Users/rabshakeh/workspace/git_utils'
p17
aS'/Users/rabshakeh/workspace/github/angular.js'
p18
aS'/Users/rabshakeh/workspace/github/cpython'
p19
aS'/Users/rabshakeh/workspace/github/dedrop'
p20
aS'/Users/rabshakeh/workspace/github/django'
p21
aS'/Users/rabshakeh/workspace/github/doom3.gpl'
p22
aS'/Users/rabshakeh/workspace/github/font-awesome-to-png'
p23
aS'/Users/rabshakeh/workspace/github/librsync'
p24
aS'/Users/rabshakeh/workspace/github/Quake'
p25
aS'/Users/rabshakeh/workspace/github/Quake-2'
p26
aS'/Users/rabshakeh/workspace/github/Quake-III-Arena'
p27
aS'/Users/rabshakeh/workspace/github/Quake-Tools'
p28
aS'/Users/rabshakeh/workspace/google/google-cloud-datastore'
p29
aS'/Users/rabshakeh/workspace/rabo_enquete'
p30
aS'/Users/rabshakeh/workspace/research'
p31
aS'/Users/rabshakeh/workspace/SeebregtsSaey'
p32
aS'/Users/rabshakeh/workspace/uren_active8_nl'
p33
aS'/Users/rabshakeh/workspace/www_active8_nl'
p34
aS'/Users/rabshakeh/workspace/www_apptownrotterdam_nl'
p35
aS'/Users/rabshakeh/workspace/www_todo_nl'
p36
a.