(lp1
S'/Users/rabshakeh/workspace/cryptobox/backup'
p2
aS'/Users/rabshakeh/workspace/cryptobox/coffeescript-pretty-print'
p3
aS'/Users/rabshakeh/workspace/cryptobox/couchdb_api'
p4
aS'/Users/rabshakeh/workspace/cryptobox/crypto_api'
p5
aS'/Users/rabshakeh/workspace/cryptobox/crypto_lang'
p6
aS'/Users/rabshakeh/workspace/cryptobox/crypto_task'
p7
aS'/Users/rabshakeh/workspace/cryptobox/crypto_taskworker'
p8
aS'/Users/rabshakeh/workspace/cryptobox/crypto_tree'
p9
aS'/Users/rabshakeh/workspace/cryptobox/cryptobox_app'
p10
aS'/Users/rabshakeh/workspace/cryptobox/cryptobox_webapp'
p11
aS'/Users/rabshakeh/workspace/cryptobox/cryptobox_website'
p12
aS'/Users/rabshakeh/workspace/cryptobox/mailer'
p13
aS'/Users/rabshakeh/workspace/cryptobox/sms'
p14
aS'/Users/rabshakeh/workspace/cryptobox/www_cryptobox_nl'
p15
aS'/Users/rabshakeh/workspace/git_utils'
p16
aS'/Users/rabshakeh/workspace/google/google-cloud-datastore'
p17
a.