(lp1
S'/Users/rabshakeh/workspace/cryptobox/coffeescript-pretty-print'
p2
aS'/Users/rabshakeh/workspace/cryptobox/couchdb_api'
p3
aS'/Users/rabshakeh/workspace/cryptobox/crypto_api'
p4
aS'/Users/rabshakeh/workspace/cryptobox/crypto_lang'
p5
aS'/Users/rabshakeh/workspace/cryptobox/crypto_task'
p6
aS'/Users/rabshakeh/workspace/cryptobox/crypto_taskworker'
p7
aS'/Users/rabshakeh/workspace/cryptobox/crypto_tree'
p8
aS'/Users/rabshakeh/workspace/cryptobox/cryptobox_app'
p9
aS'/Users/rabshakeh/workspace/cryptobox/cryptobox_webapp'
p10
aS'/Users/rabshakeh/workspace/cryptobox/cryptobox_website'
p11
aS'/Users/rabshakeh/workspace/cryptobox/mailer'
p12
aS'/Users/rabshakeh/workspace/cryptobox/sms'
p13
aS'/Users/rabshakeh/workspace/cryptobox/www_cryptobox_nl'
p14
aS'/Users/rabshakeh/workspace/de_jonge_vakkleding'
p15
aS'/Users/rabshakeh/workspace/git_utils'
p16
aS'/Users/rabshakeh/workspace/google/google-cloud-datastore'
p17
aS'/Users/rabshakeh/workspace/uren_active8_nl'
p18
a.